; Function Attrs: nounwind uwtable
define dso_local range(i32 0, 28) i32 @Curl_http_resp_make(ptr noundef writeonly captures(none) initializes((0, 8)) %0, i32 noundef %1, ptr noundef %2) local_unnamed_addr #0 {
  %4 = load ptr, ptr @Curl_ccalloc, align 8, !tbaa !90
  %5 = tail call ptr %4(i64 noundef 1, i64 noundef 136) #11
  %.not25 = icmp eq ptr %5, null
  br i1 %.not25, label %14, label %6

6:                                                ; preds = %3
  store i32 %1, ptr %5, align 8, !tbaa !244
  %.not = icmp eq ptr %2, null
  br i1 %.not, label %.thread, label %7

7:                                                ; preds = %6
  %8 = load ptr, ptr @Curl_cstrdup, align 8, !tbaa !90
  %9 = tail call ptr %8(ptr noundef nonnull %2) #11
  %10 = getelementptr inbounds nuw i8, ptr %5, i64 8
  store ptr %9, ptr %10, align 8, !tbaa !247
  %.not18 = icmp eq ptr %9, null
  br i1 %.not18, label %11, label %.thread

11:                                               ; preds = %7
  tail call void @Curl_http_resp_free(ptr noundef nonnull %5)
  br label %14

.thread:                                          ; preds = %6, %7
  %12 = getelementptr inbounds nuw i8, ptr %5, i64 16
  tail call void @Curl_dynhds_init(ptr noundef nonnull %12, i64 noundef 0, i64 noundef 1048576) #11
  %13 = getelementptr inbounds nuw i8, ptr %5, i64 72
  tail call void @Curl_dynhds_init(ptr noundef nonnull %13, i64 noundef 0, i64 noundef 1048576) #11
  br label %14

14:                                               ; preds = %3, %11, %.thread
  %.02123 = phi i32 [ 0, %.thread ], [ 27, %3 ], [ 27, %11 ]
  %15 = phi ptr [ %5, %.thread ], [ null, %3 ], [ null, %11 ]
  store ptr %15, ptr %0, align 8, !tbaa !248
  ret i32 %.02123
}